; ModuleID = '20/630.c'
source_filename = "20/630.c"
target datalayout = "e-m:e-p270:32:32-p271:32:32-p272:64:64-i64:64-f80:128-n8:16:32:64-S128"
target triple = "x86_64-pc-linux-gnu"

@.str = private unnamed_addr constant [3 x i8] c"%c\00", align 1
@.str.1 = private unnamed_addr constant [2 x i8] c"\0A\00", align 1

; Function Attrs: noinline nounwind uwtable
define dso_local void @main() #0 {
  %1 = alloca [100 x [13 x i8]], align 16
  %2 = alloca i8, align 1
  %3 = alloca i32, align 4
  %4 = alloca i32, align 4
  %5 = alloca i32, align 4
  %6 = alloca i32, align 4
  %7 = alloca i32, align 4
  store i32 0, i32* %3, align 4
  br label %8

8:                                                ; preds = %26, %0
  %9 = load i32, i32* %3, align 4
  %10 = icmp slt i32 %9, 100
  br i1 %10, label %11, label %29

11:                                               ; preds = %8
  store i32 0, i32* %7, align 4
  br label %12

12:                                               ; preds = %22, %11
  %13 = load i32, i32* %7, align 4
  %14 = icmp slt i32 %13, 13
  br i1 %14, label %15, label %25

15:                                               ; preds = %12
  %16 = load i32, i32* %3, align 4
  %17 = sext i32 %16 to i64
  %18 = getelementptr inbounds [100 x [13 x i8]], [100 x [13 x i8]]* %1, i64 0, i64 %17
  %19 = load i32, i32* %7, align 4
  %20 = sext i32 %19 to i64
  %21 = getelementptr inbounds [13 x i8], [13 x i8]* %18, i64 0, i64 %20
  store i8 0, i8* %21, align 1
  br label %22

22:                                               ; preds = %15
  %23 = load i32, i32* %7, align 4
  %24 = add nsw i32 %23, 1
  store i32 %24, i32* %7, align 4
  br label %12

25:                                               ; preds = %12
  br label %26

26:                                               ; preds = %25
  %27 = load i32, i32* %3, align 4
  %28 = add nsw i32 %27, 1
  store i32 %28, i32* %3, align 4
  br label %8

29:                                               ; preds = %8
  store i32 0, i32* %3, align 4
  br label %30

30:                                               ; preds = %45, %29
  %31 = load i32, i32* %3, align 4
  %32 = sext i32 %31 to i64
  %33 = getelementptr inbounds [100 x [13 x i8]], [100 x [13 x i8]]* %1, i64 0, i64 %32
  %34 = getelementptr inbounds [13 x i8], [13 x i8]* %33, i64 0, i64 0
  %35 = call i32 (i8*, ...) bitcast (i32 (...)* @gets to i32 (i8*, ...)*)(i8* %34)
  %36 = load i32, i32* %3, align 4
  %37 = sext i32 %36 to i64
  %38 = getelementptr inbounds [100 x [13 x i8]], [100 x [13 x i8]]* %1, i64 0, i64 %37
  %39 = getelementptr inbounds [13 x i8], [13 x i8]* %38, i64 0, i64 0
  %40 = load i8, i8* %39, align 1
  %41 = sext i8 %40 to i32
  %42 = icmp eq i32 %41, 0
  br i1 %42, label %43, label %44

43:                                               ; preds = %30
  br label %48

44:                                               ; preds = %30
  br label %45

45:                                               ; preds = %44
  %46 = load i32, i32* %3, align 4
  %47 = add nsw i32 %46, 1
  store i32 %47, i32* %3, align 4
  br label %30

48:                                               ; preds = %43
  %49 = load i32, i32* %3, align 4
  store i32 %49, i32* %4, align 4
  store i32 0, i32* %3, align 4
  br label %50

50:                                               ; preds = %157, %48
  %51 = load i32, i32* %3, align 4
  %52 = load i32, i32* %4, align 4
  %53 = icmp slt i32 %51, %52
  br i1 %53, label %54, label %160

54:                                               ; preds = %50
  %55 = load i32, i32* %3, align 4
  %56 = sext i32 %55 to i64
  %57 = getelementptr inbounds [100 x [13 x i8]], [100 x [13 x i8]]* %1, i64 0, i64 %56
  %58 = getelementptr inbounds [13 x i8], [13 x i8]* %57, i64 0, i64 0
  %59 = call i64 @strlen(i8* %58) #3
  %60 = trunc i64 %59 to i32
  store i32 %60, i32* %6, align 4
  %61 = load i32, i32* %3, align 4
  %62 = sext i32 %61 to i64
  %63 = getelementptr inbounds [100 x [13 x i8]], [100 x [13 x i8]]* %1, i64 0, i64 %62
  %64 = getelementptr inbounds [13 x i8], [13 x i8]* %63, i64 0, i64 0
  %65 = load i8, i8* %64, align 1
  store i8 %65, i8* %2, align 1
  store i32 0, i32* %5, align 4
  store i32 0, i32* %7, align 4
  br label %66

66:                                               ; preds = %93, %54
  %67 = load i32, i32* %7, align 4
  %68 = load i32, i32* %6, align 4
  %69 = sub nsw i32 %68, 5
  %70 = icmp sle i32 %67, %69
  br i1 %70, label %71, label %96

71:                                               ; preds = %66
  %72 = load i32, i32* %3, align 4
  %73 = sext i32 %72 to i64
  %74 = getelementptr inbounds [100 x [13 x i8]], [100 x [13 x i8]]* %1, i64 0, i64 %73
  %75 = load i32, i32* %7, align 4
  %76 = sext i32 %75 to i64
  %77 = getelementptr inbounds [13 x i8], [13 x i8]* %74, i64 0, i64 %76
  %78 = load i8, i8* %77, align 1
  %79 = sext i8 %78 to i32
  %80 = load i8, i8* %2, align 1
  %81 = sext i8 %80 to i32
  %82 = icmp sgt i32 %79, %81
  br i1 %82, label %83, label %92

83:                                               ; preds = %71
  %84 = load i32, i32* %3, align 4
  %85 = sext i32 %84 to i64
  %86 = getelementptr inbounds [100 x [13 x i8]], [100 x [13 x i8]]* %1, i64 0, i64 %85
  %87 = load i32, i32* %7, align 4
  %88 = sext i32 %87 to i64
  %89 = getelementptr inbounds [13 x i8], [13 x i8]* %86, i64 0, i64 %88
  %90 = load i8, i8* %89, align 1
  store i8 %90, i8* %2, align 1
  %91 = load i32, i32* %7, align 4
  store i32 %91, i32* %5, align 4
  br label %92

92:                                               ; preds = %83, %71
  br label %93

93:                                               ; preds = %92
  %94 = load i32, i32* %7, align 4
  %95 = add nsw i32 %94, 1
  store i32 %95, i32* %7, align 4
  br label %66

96:                                               ; preds = %66
  store i32 0, i32* %7, align 4
  br label %97

97:                                               ; preds = %111, %96
  %98 = load i32, i32* %7, align 4
  %99 = load i32, i32* %5, align 4
  %100 = icmp sle i32 %98, %99
  br i1 %100, label %101, label %114

101:                                              ; preds = %97
  %102 = load i32, i32* %3, align 4
  %103 = sext i32 %102 to i64
  %104 = getelementptr inbounds [100 x [13 x i8]], [100 x [13 x i8]]* %1, i64 0, i64 %103
  %105 = load i32, i32* %7, align 4
  %106 = sext i32 %105 to i64
  %107 = getelementptr inbounds [13 x i8], [13 x i8]* %104, i64 0, i64 %106
  %108 = load i8, i8* %107, align 1
  %109 = sext i8 %108 to i32
  %110 = call i32 (i8*, ...) @printf(i8* getelementptr inbounds ([3 x i8], [3 x i8]* @.str, i64 0, i64 0), i32 %109)
  br label %111

111:                                              ; preds = %101
  %112 = load i32, i32* %7, align 4
  %113 = add nsw i32 %112, 1
  store i32 %113, i32* %7, align 4
  br label %97

114:                                              ; preds = %97
  %115 = load i32, i32* %6, align 4
  %116 = sub nsw i32 %115, 3
  store i32 %116, i32* %7, align 4
  br label %117

117:                                              ; preds = %131, %114
  %118 = load i32, i32* %7, align 4
  %119 = load i32, i32* %6, align 4
  %120 = icmp slt i32 %118, %119
  br i1 %120, label %121, label %134

121:                                              ; preds = %117
  %122 = load i32, i32* %3, align 4
  %123 = sext i32 %122 to i64
  %124 = getelementptr inbounds [100 x [13 x i8]], [100 x [13 x i8]]* %1, i64 0, i64 %123
  %125 = load i32, i32* %7, align 4
  %126 = sext i32 %125 to i64
  %127 = getelementptr inbounds [13 x i8], [13 x i8]* %124, i64 0, i64 %126
  %128 = load i8, i8* %127, align 1
  %129 = sext i8 %128 to i32
  %130 = call i32 (i8*, ...) @printf(i8* getelementptr inbounds ([3 x i8], [3 x i8]* @.str, i64 0, i64 0), i32 %129)
  br label %131

131:                                              ; preds = %121
  %132 = load i32, i32* %7, align 4
  %133 = add nsw i32 %132, 1
  store i32 %133, i32* %7, align 4
  br label %117

134:                                              ; preds = %117
  %135 = load i32, i32* %5, align 4
  %136 = add nsw i32 %135, 1
  store i32 %136, i32* %7, align 4
  br label %137

137:                                              ; preds = %152, %134
  %138 = load i32, i32* %7, align 4
  %139 = load i32, i32* %6, align 4
  %140 = sub nsw i32 %139, 4
  %141 = icmp slt i32 %138, %140
  br i1 %141, label %142, label %155

142:                                              ; preds = %137
  %143 = load i32, i32* %3, align 4
  %144 = sext i32 %143 to i64
  %145 = getelementptr inbounds [100 x [13 x i8]], [100 x [13 x i8]]* %1, i64 0, i64 %144
  %146 = load i32, i32* %7, align 4
  %147 = sext i32 %146 to i64
  %148 = getelementptr inbounds [13 x i8], [13 x i8]* %145, i64 0, i64 %147
  %149 = load i8, i8* %148, align 1
  %150 = sext i8 %149 to i32
  %151 = call i32 (i8*, ...) @printf(i8* getelementptr inbounds ([3 x i8], [3 x i8]* @.str, i64 0, i64 0), i32 %150)
  br label %152

152:                                              ; preds = %142
  %153 = load i32, i32* %7, align 4
  %154 = add nsw i32 %153, 1
  store i32 %154, i32* %7, align 4
  br label %137

155:                                              ; preds = %137
  %156 = call i32 (i8*, ...) @printf(i8* getelementptr inbounds ([2 x i8], [2 x i8]* @.str.1, i64 0, i64 0))
  br label %157

157:                                              ; preds = %155
  %158 = load i32, i32* %3, align 4
  %159 = add nsw i32 %158, 1
  store i32 %159, i32* %3, align 4
  br label %50

160:                                              ; preds = %50
  ret void
}

declare dso_local i32 @gets(...) #1

; Function Attrs: nounwind readonly
declare dso_local i64 @strlen(i8*) #2

declare dso_local i32 @printf(i8*, ...) #1


!llvm.module.flags = !{!0}
!llvm.ident = !{!1}

!0 = !{i32 1, !"wchar_size", i32 4}
!1 = !{!"clang version 10.0.0-4ubuntu1 "}
